target datalayout = "e-m:e-p270:32:32-p271:32:32-p272:64:64-i64:64-i128:128-f80:128-n8:16:32:64-S128"
target triple = "x86_64-pc-linux-gnu"

%struct.Aig_Man_t_ = type { ptr, ptr, ptr, ptr, ptr, ptr, ptr, %struct.Aig_Obj_t_, i32, i32, i32, i32, i32, i32, [7 x i32], i32, ptr, i32, ptr, i32, ptr, i32, i32, i32, ptr, i32, i32, i32, i32, i32, ptr, ptr, i32, ptr, ptr, i32, ptr, ptr, i32, i32, i32, ptr, ptr, ptr, ptr, ptr, ptr, ptr, ptr, ptr, ptr, ptr, ptr, ptr, ptr, i32, ptr, ptr, ptr, ptr, i32, i64, i64, i64, ptr, ptr }
%struct.Aig_Obj_t_ = type { %union.anon, ptr, ptr, i64, i32, i32, %union.anon.0 }
%union.anon = type { ptr }
%union.anon.0 = type { ptr }
%struct.Vec_Ptr_t_ = type { i32, i32, ptr }
%struct.Nwk_Obj_t_ = type { ptr, ptr, ptr, %union.anon.1, i32, i32, i32, i32, float, float, float, i32, i32, i32, ptr }
%union.anon.1 = type { ptr }

; Function Attrs: inlinehint nounwind uwtable
define internal void @Vec_PtrWriteEntry(ptr noundef %0, i32 noundef %1, ptr noundef %2) #3 {
  %4 = alloca ptr, align 8
  %5 = alloca i32, align 4
  %6 = alloca ptr, align 8
  store ptr %0, ptr %4, align 8, !tbaa !46
  store i32 %1, ptr %5, align 4, !tbaa !36
  store ptr %2, ptr %6, align 8, !tbaa !50
  %7 = load ptr, ptr %6, align 8, !tbaa !50
  %8 = load ptr, ptr %4, align 8, !tbaa !46
  %9 = getelementptr inbounds nuw %struct.Vec_Ptr_t_, ptr %8, i32 0, i32 2
  %10 = load ptr, ptr %9, align 8, !tbaa !49
  %11 = load i32, ptr %5, align 4, !tbaa !36
  %12 = sext i32 %11 to i64
  %13 = getelementptr inbounds ptr, ptr %10, i64 %12
  store ptr %7, ptr %13, align 8, !tbaa !50
  ret void
}

; Function Attrs: inlinehint nounwind uwtable
define internal ptr @Vec_PtrEntry(ptr noundef %0, i32 noundef %1) #3 {
  %3 = alloca ptr, align 8
  %4 = alloca i32, align 4
  store ptr %0, ptr %3, align 8, !tbaa !46
  store i32 %1, ptr %4, align 4, !tbaa !36
  %5 = load ptr, ptr %3, align 8, !tbaa !46
  %6 = getelementptr inbounds nuw %struct.Vec_Ptr_t_, ptr %5, i32 0, i32 2
  %7 = load ptr, ptr %6, align 8, !tbaa !49
  %8 = load i32, ptr %4, align 4, !tbaa !36
  %9 = sext i32 %8 to i64
  %10 = getelementptr inbounds ptr, ptr %7, i64 %9
  %11 = load ptr, ptr %10, align 8, !tbaa !50
  ret ptr %11
}

; Function Attrs: inlinehint nounwind uwtable
define internal i32 @Vec_PtrSize(ptr noundef %0) #3 {
  %2 = alloca ptr, align 8
  store ptr %0, ptr %2, align 8, !tbaa !46
  %3 = load ptr, ptr %2, align 8, !tbaa !46
  %4 = getelementptr inbounds nuw %struct.Vec_Ptr_t_, ptr %3, i32 0, i32 1
  %5 = load i32, ptr %4, align 4, !tbaa !47
  ret i32 %5
}

; Function Attrs: inlinehint nounwind uwtable
define internal i32 @Aig_ManRegNum(ptr noundef %0) #3 {
  %2 = alloca ptr, align 8
  store ptr %0, ptr %2, align 8, !tbaa !3
  %3 = load ptr, ptr %2, align 8, !tbaa !3
  %4 = getelementptr inbounds nuw %struct.Aig_Man_t_, ptr %3, i32 0, i32 8
  %5 = load i32, ptr %4, align 8, !tbaa !62
  ret i32 %5
}

; Function Attrs: nounwind uwtable
define ptr @Nwk_ManDeriveRetimingCut(ptr noundef %0, i32 noundef %1, i32 noundef %2) #0 {
  %4 = alloca ptr, align 8
  %5 = alloca i32, align 4
  %6 = alloca i32, align 4
  %7 = alloca ptr, align 8
  %8 = alloca ptr, align 8
  %9 = alloca ptr, align 8
  %10 = alloca ptr, align 8
  %11 = alloca i32, align 4
  store ptr %0, ptr %4, align 8, !tbaa !3
  store i32 %1, ptr %5, align 4, !tbaa !36
  store i32 %2, ptr %6, align 4, !tbaa !36
  call void @llvm.lifetime.start.p0(i64 8, ptr %7) #8
  call void @llvm.lifetime.start.p0(i64 8, ptr %8) #8
  call void @llvm.lifetime.start.p0(i64 8, ptr %9) #8
  call void @llvm.lifetime.start.p0(i64 8, ptr %10) #8
  call void @llvm.lifetime.start.p0(i64 4, ptr %11) #8
  %12 = load ptr, ptr %4, align 8, !tbaa !3
  %13 = call ptr @Nwk_ManDeriveFromAig(ptr noundef %12)
  store ptr %13, ptr %8, align 8, !tbaa !8
  %14 = load i32, ptr %5, align 4, !tbaa !36
  %15 = icmp ne i32 %14, 0
  br i1 %15, label %16, label %22

16:                                               ; preds = %3
  %17 = load ptr, ptr %8, align 8, !tbaa !8
  %18 = load ptr, ptr %4, align 8, !tbaa !3
  %19 = call i32 @Aig_ManRegNum(ptr noundef %18)
  %20 = load i32, ptr %6, align 4, !tbaa !36
  %21 = call ptr @Nwk_ManRetimeCutForward(ptr noundef %17, i32 noundef %19, i32 noundef %20)
  store ptr %21, ptr %7, align 8, !tbaa !46
  br label %28

22:                                               ; preds = %3
  %23 = load ptr, ptr %8, align 8, !tbaa !8
  %24 = load ptr, ptr %4, align 8, !tbaa !3
  %25 = call i32 @Aig_ManRegNum(ptr noundef %24)
  %26 = load i32, ptr %6, align 4, !tbaa !36
  %27 = call ptr @Nwk_ManRetimeCutBackward(ptr noundef %23, i32 noundef %25, i32 noundef %26)
  store ptr %27, ptr %7, align 8, !tbaa !46
  br label %28

28:                                               ; preds = %22, %16
  store i32 0, ptr %11, align 4, !tbaa !36
  br label %29

29:                                               ; preds = %55, %28
  %30 = load i32, ptr %11, align 4, !tbaa !36
  %31 = load ptr, ptr %4, align 8, !tbaa !3
  %32 = getelementptr inbounds nuw %struct.Aig_Man_t_, ptr %31, i32 0, i32 4
  %33 = load ptr, ptr %32, align 8, !tbaa !40
  %34 = call i32 @Vec_PtrSize(ptr noundef %33)
  %35 = icmp slt i32 %30, %34
  br i1 %35, label %36, label %42

36:                                               ; preds = %29
  %37 = load ptr, ptr %4, align 8, !tbaa !3
  %38 = getelementptr inbounds nuw %struct.Aig_Man_t_, ptr %37, i32 0, i32 4
  %39 = load ptr, ptr %38, align 8, !tbaa !40
  %40 = load i32, ptr %11, align 4, !tbaa !36
  %41 = call ptr @Vec_PtrEntry(ptr noundef %39, i32 noundef %40)
  store ptr %41, ptr %10, align 8, !tbaa !34
  br label %42

42:                                               ; preds = %36, %29
  %43 = phi i1 [ false, %29 ], [ true, %36 ]
  br i1 %43, label %44, label %58

44:                                               ; preds = %42
  %45 = load ptr, ptr %10, align 8, !tbaa !34
  %46 = icmp eq ptr %45, null
  br i1 %46, label %47, label %48

47:                                               ; preds = %44
  br label %54

48:                                               ; preds = %44
  %49 = load ptr, ptr %10, align 8, !tbaa !34
  %50 = load ptr, ptr %10, align 8, !tbaa !34
  %51 = getelementptr inbounds nuw %struct.Aig_Obj_t_, ptr %50, i32 0, i32 6
  %52 = load ptr, ptr %51, align 8, !tbaa !35
  %53 = getelementptr inbounds nuw %struct.Nwk_Obj_t_, ptr %52, i32 0, i32 2
  store ptr %49, ptr %53, align 8, !tbaa !53
  br label %54

54:                                               ; preds = %48, %47
  br label %55

55:                                               ; preds = %54
  %56 = load i32, ptr %11, align 4, !tbaa !36
  %57 = add nsw i32 %56, 1
  store i32 %57, ptr %11, align 4, !tbaa !36
  br label %29, !llvm.loop !58

58:                                               ; preds = %42
  store i32 0, ptr %11, align 4, !tbaa !36
  br label %59

59:                                               ; preds = %76, %58
  %60 = load i32, ptr %11, align 4, !tbaa !36
  %61 = load ptr, ptr %7, align 8, !tbaa !46
  %62 = call i32 @Vec_PtrSize(ptr noundef %61)
  %63 = icmp slt i32 %60, %62
  br i1 %63, label %64, label %68

64:                                               ; preds = %59
  %65 = load ptr, ptr %7, align 8, !tbaa !46
  %66 = load i32, ptr %11, align 4, !tbaa !36
  %67 = call ptr @Vec_PtrEntry(ptr noundef %65, i32 noundef %66)
  store ptr %67, ptr %9, align 8, !tbaa !59
  br label %68

68:                                               ; preds = %64, %59
  %69 = phi i1 [ false, %59 ], [ true, %64 ]
  br i1 %69, label %70, label %79

70:                                               ; preds = %68
  %71 = load ptr, ptr %7, align 8, !tbaa !46
  %72 = load i32, ptr %11, align 4, !tbaa !36
  %73 = load ptr, ptr %9, align 8, !tbaa !59
  %74 = getelementptr inbounds nuw %struct.Nwk_Obj_t_, ptr %73, i32 0, i32 2
  %75 = load ptr, ptr %74, align 8, !tbaa !53
  call void @Vec_PtrWriteEntry(ptr noundef %71, i32 noundef %72, ptr noundef %75)
  br label %76

76:                                               ; preds = %70
  %77 = load i32, ptr %11, align 4, !tbaa !36
  %78 = add nsw i32 %77, 1
  store i32 %78, ptr %11, align 4, !tbaa !36
  br label %59, !llvm.loop !61

79:                                               ; preds = %68
  %80 = load ptr, ptr %8, align 8, !tbaa !8
  call void @Nwk_ManFree(ptr noundef %80)
  %81 = load ptr, ptr %7, align 8, !tbaa !46
  call void @llvm.lifetime.end.p0(i64 4, ptr %11) #8
  call void @llvm.lifetime.end.p0(i64 8, ptr %10) #8
  call void @llvm.lifetime.end.p0(i64 8, ptr %9) #8
  call void @llvm.lifetime.end.p0(i64 8, ptr %8) #8
  call void @llvm.lifetime.end.p0(i64 8, ptr %7) #8
  ret ptr %81
}