; Function Attrs: nounwind uwtable
define ptr @Nwk_ManDeriveRetimingCut(ptr noundef readonly captures(none) %0, i32 noundef %1, i32 noundef %2) local_unnamed_addr #0 {
  %4 = tail call ptr @Nwk_ManDeriveFromAig(ptr noundef %0)
  %.not = icmp eq i32 %1, 0
  %5 = getelementptr i8, ptr %0, i64 104
  %.val32 = load i32, ptr %5, align 8, !tbaa !46
  br i1 %.not, label %8, label %6

6:                                                ; preds = %3
  %7 = tail call ptr @Nwk_ManRetimeCutForward(ptr noundef %4, i32 noundef %.val32, i32 noundef %2) #12
  br label %10

8:                                                ; preds = %3
  %9 = tail call ptr @Nwk_ManRetimeCutBackward(ptr noundef %4, i32 noundef %.val32, i32 noundef %2) #12
  br label %10

10:                                               ; preds = %8, %6
  %.027 = phi ptr [ %7, %6 ], [ %9, %8 ]
  %11 = getelementptr inbounds nuw i8, ptr %0, i64 32
  %12 = load ptr, ptr %11, align 8, !tbaa !36
  %13 = getelementptr i8, ptr %12, i64 4
  %.val = load i32, ptr %13, align 4, !tbaa !34
  %14 = icmp sgt i32 %.val, 0
  br i1 %14, label %.lr.ph, label %.critedge.preheader

.lr.ph:                                           ; preds = %10
  %15 = getelementptr i8, ptr %12, i64 8
  %.val30 = load ptr, ptr %15, align 8, !tbaa !37
  %wide.trip.count = zext nneg i32 %.val to i64
  br label %19

.critedge.preheader:                              ; preds = %27, %10
  %16 = getelementptr i8, ptr %.027, i64 4
  %.027.val = load i32, ptr %16, align 4, !tbaa !34
  %17 = icmp sgt i32 %.027.val, 0
  br i1 %17, label %.lr.ph36, label %.critedge2

.lr.ph36:                                         ; preds = %.critedge.preheader
  %18 = getelementptr i8, ptr %.027, i64 8
  %wide.trip.count41 = zext nneg i32 %.027.val to i64
  br label %.critedge

19:                                               ; preds = %.lr.ph, %27
  %indvars.iv = phi i64 [ 0, %.lr.ph ], [ %indvars.iv.next, %27 ]
  %20 = getelementptr inbounds nuw ptr, ptr %.val30, i64 %indvars.iv
  %21 = load ptr, ptr %20, align 8, !tbaa !38
  %22 = icmp eq ptr %21, null
  br i1 %22, label %27, label %23

23:                                               ; preds = %19
  %24 = getelementptr inbounds nuw i8, ptr %21, i64 40
  %25 = load ptr, ptr %24, align 8, !tbaa !32
  %26 = getelementptr inbounds nuw i8, ptr %25, i64 16
  store ptr %21, ptr %26, align 8, !tbaa !47
  br label %27

27:                                               ; preds = %23, %19
  %indvars.iv.next = add nuw nsw i64 %indvars.iv, 1
  %exitcond.not = icmp eq i64 %indvars.iv.next, %wide.trip.count
  br i1 %exitcond.not, label %.critedge.preheader, label %19, !llvm.loop !53

.critedge:                                        ; preds = %.lr.ph36, %.critedge
  %indvars.iv38 = phi i64 [ 0, %.lr.ph36 ], [ %indvars.iv.next39, %.critedge ]
  %.027.val29 = load ptr, ptr %18, align 8, !tbaa !37
  %28 = getelementptr inbounds nuw ptr, ptr %.027.val29, i64 %indvars.iv38
  %29 = load ptr, ptr %28, align 8, !tbaa !38
  %30 = getelementptr inbounds nuw i8, ptr %29, i64 16
  %31 = load ptr, ptr %30, align 8, !tbaa !47
  store ptr %31, ptr %28, align 8, !tbaa !38
  %indvars.iv.next39 = add nuw nsw i64 %indvars.iv38, 1
  %exitcond42.not = icmp eq i64 %indvars.iv.next39, %wide.trip.count41
  br i1 %exitcond42.not, label %.critedge2, label %.critedge, !llvm.loop !54

.critedge2:                                       ; preds = %.critedge, %.critedge.preheader
  tail call void @Nwk_ManFree(ptr noundef %4) #12
  ret ptr %.027
}